target datalayout = "e-m:e-p270:32:32-p271:32:32-p272:64:64-i64:64-i128:128-f80:128-n8:16:32:64-S128"
target triple = "x86_64-pc-linux-gnu"

@.str = private unnamed_addr constant [3 x i8] c"rb\00", align 1

; Function Attrs: nounwind uwtable
define dso_local ptr @js_load_file(ptr noundef %0, ptr noundef %1, ptr noundef %2) #0 {
  %4 = alloca ptr, align 8
  %5 = alloca ptr, align 8
  %6 = alloca ptr, align 8
  %7 = alloca ptr, align 8
  %8 = alloca ptr, align 8
  %9 = alloca ptr, align 8
  %10 = alloca i64, align 8
  %11 = alloca i64, align 8
  store ptr %0, ptr %5, align 8
  store ptr %1, ptr %6, align 8
  store ptr %2, ptr %7, align 8
  %12 = load ptr, ptr %7, align 8
  %13 = call noalias ptr @fopen(ptr noundef %12, ptr noundef @.str)
  store ptr %13, ptr %8, align 8
  %14 = load ptr, ptr %8, align 8
  %15 = icmp ne ptr %14, null
  br i1 %15, label %17, label %16

16:                                               ; preds = %3
  store ptr null, ptr %4, align 8
  br label %84

17:                                               ; preds = %3
  %18 = load ptr, ptr %8, align 8
  %19 = call i32 @fseek(ptr noundef %18, i64 noundef 0, i32 noundef 2)
  %20 = icmp slt i32 %19, 0
  br i1 %20, label %21, label %22

21:                                               ; preds = %17
  br label %72

22:                                               ; preds = %17
  %23 = load ptr, ptr %8, align 8
  %24 = call i64 @ftell(ptr noundef %23)
  store i64 %24, ptr %11, align 8
  %25 = load i64, ptr %11, align 8
  %26 = icmp slt i64 %25, 0
  br i1 %26, label %27, label %28

27:                                               ; preds = %22
  br label %72

28:                                               ; preds = %22
  %29 = load i64, ptr %11, align 8
  %30 = icmp eq i64 %29, 9223372036854775807
  br i1 %30, label %31, label %33

31:                                               ; preds = %28
  %32 = call ptr @__errno_location() #10
  store i32 21, ptr %32, align 4
  br label %72

33:                                               ; preds = %28
  %34 = load i64, ptr %11, align 8
  store i64 %34, ptr %10, align 8
  %35 = load ptr, ptr %8, align 8
  %36 = call i32 @fseek(ptr noundef %35, i64 noundef 0, i32 noundef 0)
  %37 = icmp slt i32 %36, 0
  br i1 %37, label %38, label %39

38:                                               ; preds = %33
  br label %72

39:                                               ; preds = %33
  %40 = load ptr, ptr %5, align 8
  %41 = icmp ne ptr %40, null
  br i1 %41, label %42, label %47

42:                                               ; preds = %39
  %43 = load ptr, ptr %5, align 8
  %44 = load i64, ptr %10, align 8
  %45 = add i64 %44, 1
  %46 = call ptr @js_malloc(ptr noundef %43, i64 noundef %45)
  store ptr %46, ptr %9, align 8
  br label %51

47:                                               ; preds = %39
  %48 = load i64, ptr %10, align 8
  %49 = add i64 %48, 1
  %50 = call noalias ptr @malloc(i64 noundef %49) #11
  store ptr %50, ptr %9, align 8
  br label %51

51:                                               ; preds = %47, %42
  %52 = load ptr, ptr %9, align 8
  %53 = icmp ne ptr %52, null
  br i1 %53, label %55, label %54

54:                                               ; preds = %51
  br label %72

55:                                               ; preds = %51
  %56 = load ptr, ptr %9, align 8
  %57 = load i64, ptr %10, align 8
  %58 = load ptr, ptr %8, align 8
  %59 = call i64 @fread(ptr noundef %56, i64 noundef 1, i64 noundef %57, ptr noundef %58)
  %60 = load i64, ptr %10, align 8
  %61 = icmp ne i64 %59, %60
  br i1 %61, label %62, label %75

62:                                               ; preds = %55
  %63 = call ptr @__errno_location() #10
  store i32 5, ptr %63, align 4
  %64 = load ptr, ptr %5, align 8
  %65 = icmp ne ptr %64, null
  br i1 %65, label %66, label %69

66:                                               ; preds = %62
  %67 = load ptr, ptr %5, align 8
  %68 = load ptr, ptr %9, align 8
  call void @js_free(ptr noundef %67, ptr noundef %68)
  br label %71

69:                                               ; preds = %62
  %70 = load ptr, ptr %9, align 8
  call void @free(ptr noundef %70) #12
  br label %71

71:                                               ; preds = %69, %66
  br label %72

72:                                               ; preds = %71, %54, %38, %31, %27, %21
  %73 = load ptr, ptr %8, align 8
  %74 = call i32 @fclose(ptr noundef %73)
  store ptr null, ptr %4, align 8
  br label %84

75:                                               ; preds = %55
  %76 = load ptr, ptr %9, align 8
  %77 = load i64, ptr %10, align 8
  %78 = getelementptr i8, ptr %76, i64 %77
  store i8 0, ptr %78, align 1
  %79 = load ptr, ptr %8, align 8
  %80 = call i32 @fclose(ptr noundef %79)
  %81 = load i64, ptr %10, align 8
  %82 = load ptr, ptr %6, align 8
  store i64 %81, ptr %82, align 8
  %83 = load ptr, ptr %9, align 8
  store ptr %83, ptr %4, align 8
  br label %84

84:                                               ; preds = %75, %72, %16
  %85 = load ptr, ptr %4, align 8
  ret ptr %85
}