; Function Attrs: nounwind uwtable
define dso_local ptr @js_load_file(ptr noundef %0, ptr nocapture noundef writeonly %1, ptr nocapture noundef readonly %2) local_unnamed_addr #0 {
  %4 = tail call noalias ptr @fopen(ptr noundef %2, ptr noundef nonnull @.str)
  %.not = icmp eq ptr %4, null
  br i1 %.not, label %36, label %5

5:                                                ; preds = %3
  %6 = tail call i32 @fseek(ptr noundef nonnull %4, i64 noundef 0, i32 noundef 2)
  %7 = icmp slt i32 %6, 0
  br i1 %7, label %31, label %8

8:                                                ; preds = %5
  %9 = tail call i64 @ftell(ptr noundef nonnull %4)
  %10 = icmp slt i64 %9, 0
  br i1 %10, label %31, label %11

11:                                               ; preds = %8
  %12 = icmp eq i64 %9, 9223372036854775807
  br i1 %12, label %13, label %15

13:                                               ; preds = %11
  %14 = tail call ptr @__errno_location() #28
  store i32 21, ptr %14, align 4
  br label %31

15:                                               ; preds = %11
  %16 = tail call i32 @fseek(ptr noundef nonnull %4, i64 noundef 0, i32 noundef 0)
  %17 = icmp slt i32 %16, 0
  br i1 %17, label %31, label %18

18:                                               ; preds = %15
  %.not32 = icmp eq ptr %0, null
  %19 = add nuw nsw i64 %9, 1
  br i1 %.not32, label %22, label %20

20:                                               ; preds = %18
  %21 = tail call ptr @js_malloc(ptr noundef nonnull %0, i64 noundef %19) #29
  br label %24

22:                                               ; preds = %18
  %23 = tail call noalias ptr @malloc(i64 noundef %19) #30
  br label %24

24:                                               ; preds = %22, %20
  %.028 = phi ptr [ %21, %20 ], [ %23, %22 ]
  %.not33 = icmp eq ptr %.028, null
  br i1 %.not33, label %31, label %25

25:                                               ; preds = %24
  %26 = tail call i64 @fread(ptr noundef nonnull %.028, i64 noundef 1, i64 noundef %9, ptr noundef nonnull %4)
  %.not34 = icmp eq i64 %26, %9
  br i1 %.not34, label %33, label %27

27:                                               ; preds = %25
  %28 = tail call ptr @__errno_location() #28
  store i32 5, ptr %28, align 4
  br i1 %.not32, label %30, label %29

29:                                               ; preds = %27
  tail call void @js_free(ptr noundef nonnull %0, ptr noundef nonnull %.028) #29
  br label %31

30:                                               ; preds = %27
  tail call void @free(ptr noundef nonnull %.028) #29
  br label %31

31:                                               ; preds = %29, %30, %24, %15, %8, %5, %13
  %32 = tail call i32 @fclose(ptr noundef nonnull %4)
  br label %36

33:                                               ; preds = %25
  %34 = getelementptr i8, ptr %.028, i64 %9
  store i8 0, ptr %34, align 1
  %35 = tail call i32 @fclose(ptr noundef nonnull %4)
  store i64 %9, ptr %1, align 8
  br label %36

36:                                               ; preds = %3, %33, %31
  %.0 = phi ptr [ null, %31 ], [ %.028, %33 ], [ null, %3 ]
  ret ptr %.0
}